gplink-1.5.0 #1285 (Sep 12 2016)
Map File - Created 7-11-2020  23:51:24

                                 Section Info
                  Section       Type    Address   Location Size(Bytes)
                ---------  ---------  ---------  ---------  ---------
                   .cinit    romdata   0x0003fb    program   0x000010
            IDD_idata_0_i    romdata   0x000403    program   0x000002
                  STARTUP       code   0x000000    program   0x000006
     S__mullong___mullong       code   0x000003    program   0x000362
S_idata___sdcc_gsinit_startup       code   0x0001b4    program   0x000100
        S_main___delay_us       code   0x000234    program   0x0000f2
             S_main__main       code   0x0002ad    program   0x0000be
   S__divulong___divulong       code   0x00030c    program   0x0000ac
                    .code       code   0x000362    program   0x00005e
        S_main___delay_ms       code   0x000391    program   0x000056
   S__muluchar___muluchar       code   0x0003bc    program   0x00004a
      S_main___delay_cycl       code   0x0003e1    program   0x000034
.config_8007_BUILD/DEFAULT/PRODUCTION/MAIN.O       code   0x008007    program   0x000002
.config_8008_BUILD/DEFAULT/PRODUCTION/MAIN.O       code   0x008008    program   0x000002
              IDD_idata_0      idata   0x00032e       data   0x000001
   UD_abs_pic16f1454_0000      udata   0x000000       data   0x000001
   UD_abs_pic16f1454_0001      udata   0x000001       data   0x000001
   UD_abs_pic16f1454_0002      udata   0x000002       data   0x000001
   UD_abs_pic16f1454_0003      udata   0x000003       data   0x000001
   UD_abs_pic16f1454_0004      udata   0x000004       data   0x000001
   UD_abs_pic16f1454_0005      udata   0x000005       data   0x000001
   UD_abs_pic16f1454_0006      udata   0x000006       data   0x000001
   UD_abs_pic16f1454_0007      udata   0x000007       data   0x000001
   UD_abs_pic16f1454_0008      udata   0x000008       data   0x000001
   UD_abs_pic16f1454_0009      udata   0x000009       data   0x000001
   UD_abs_pic16f1454_000a      udata   0x00000a       data   0x000001
   UD_abs_pic16f1454_000b      udata   0x00000b       data   0x000001
   UD_abs_pic16f1454_000c      udata   0x00000c       data   0x000001
   UD_abs_pic16f1454_000e      udata   0x00000e       data   0x000001
   UD_abs_pic16f1454_0011      udata   0x000011       data   0x000001
   UD_abs_pic16f1454_0012      udata   0x000012       data   0x000001
   UD_abs_pic16f1454_0015      udata   0x000015       data   0x000001
   UD_abs_pic16f1454_0016      udata   0x000016       data   0x000001
   UD_abs_pic16f1454_0017      udata   0x000017       data   0x000001
   UD_abs_pic16f1454_0018      udata   0x000018       data   0x000001
   UD_abs_pic16f1454_0019      udata   0x000019       data   0x000001
   UD_abs_pic16f1454_001a      udata   0x00001a       data   0x000001
   UD_abs_pic16f1454_001b      udata   0x00001b       data   0x000001
   UD_abs_pic16f1454_001c      udata   0x00001c       data   0x000001
                sharebank      udata   0x000070       data   0x000010
   UD_abs_pic16f1454_008c      udata   0x00008c       data   0x000001
   UD_abs_pic16f1454_008e      udata   0x00008e       data   0x000001
   UD_abs_pic16f1454_0091      udata   0x000091       data   0x000001
   UD_abs_pic16f1454_0092      udata   0x000092       data   0x000001
   UD_abs_pic16f1454_0095      udata   0x000095       data   0x000001
   UD_abs_pic16f1454_0096      udata   0x000096       data   0x000001
   UD_abs_pic16f1454_0097      udata   0x000097       data   0x000001
   UD_abs_pic16f1454_0098      udata   0x000098       data   0x000001
   UD_abs_pic16f1454_0099      udata   0x000099       data   0x000001
   UD_abs_pic16f1454_009a      udata   0x00009a       data   0x000001
   UD_abs_pic16f1454_010c      udata   0x00010c       data   0x000001
   UD_abs_pic16f1454_010e      udata   0x00010e       data   0x000001
   UD_abs_pic16f1454_0116      udata   0x000116       data   0x000001
   UD_abs_pic16f1454_0117      udata   0x000117       data   0x000001
   UD_abs_pic16f1454_011d      udata   0x00011d       data   0x000001
   UD_abs_pic16f1454_018c      udata   0x00018c       data   0x000001
   UD_abs_pic16f1454_018e      udata   0x00018e       data   0x000001
   UD_abs_pic16f1454_0191      udata   0x000191       data   0x000001
   UD_abs_pic16f1454_0192      udata   0x000192       data   0x000001
   UD_abs_pic16f1454_0193      udata   0x000193       data   0x000001
   UD_abs_pic16f1454_0194      udata   0x000194       data   0x000001
   UD_abs_pic16f1454_0195      udata   0x000195       data   0x000001
   UD_abs_pic16f1454_0196      udata   0x000196       data   0x000001
   UD_abs_pic16f1454_0197      udata   0x000197       data   0x000001
   UD_abs_pic16f1454_0199      udata   0x000199       data   0x000001
   UD_abs_pic16f1454_019a      udata   0x00019a       data   0x000001
   UD_abs_pic16f1454_019b      udata   0x00019b       data   0x000001
   UD_abs_pic16f1454_019c      udata   0x00019c       data   0x000001
   UD_abs_pic16f1454_019d      udata   0x00019d       data   0x000001
   UD_abs_pic16f1454_019e      udata   0x00019e       data   0x000001
   UD_abs_pic16f1454_019f      udata   0x00019f       data   0x000001
   UD_abs_pic16f1454_020c      udata   0x00020c       data   0x000001
   UD_abs_pic16f1454_0211      udata   0x000211       data   0x000001
   UD_abs_pic16f1454_0212      udata   0x000212       data   0x000001
   UD_abs_pic16f1454_0213      udata   0x000213       data   0x000001
   UD_abs_pic16f1454_0214      udata   0x000214       data   0x000001
   UD_abs_pic16f1454_0215      udata   0x000215       data   0x000001
   UD_abs_pic16f1454_0216      udata   0x000216       data   0x000001
   UD_abs_pic16f1454_0217      udata   0x000217       data   0x000001
          UDL__divulong_0      udata   0x000320       data   0x00000e
              UDL_idata_0      udata   0x000330       data   0x00000c
          UDL__muluchar_0      udata   0x00033c       data   0x000007
   UD_abs_pic16f1454_0391      udata   0x000391       data   0x000001
   UD_abs_pic16f1454_0392      udata   0x000392       data   0x000001
   UD_abs_pic16f1454_0393      udata   0x000393       data   0x000001
   UD_abs_pic16f1454_039a      udata   0x00039a       data   0x000001
   UD_abs_pic16f1454_039b      udata   0x00039b       data   0x000001
   UD_abs_pic16f1454_0611      udata   0x000611       data   0x000001
   UD_abs_pic16f1454_0612      udata   0x000612       data   0x000001
   UD_abs_pic16f1454_0613      udata   0x000613       data   0x000001
   UD_abs_pic16f1454_0614      udata   0x000614       data   0x000001
   UD_abs_pic16f1454_0615      udata   0x000615       data   0x000001
   UD_abs_pic16f1454_0616      udata   0x000616       data   0x000001
           UDL__mullong_0      udata   0x000620       data   0x000018
               UDL_main_0      udata   0x000638       data   0x000016
   UD_abs_pic16f1454_0e8e      udata   0x000e8e       data   0x000001
   UD_abs_pic16f1454_0e8f      udata   0x000e8f       data   0x000001
   UD_abs_pic16f1454_0e90      udata   0x000e90       data   0x000001
   UD_abs_pic16f1454_0e91      udata   0x000e91       data   0x000001
   UD_abs_pic16f1454_0e92      udata   0x000e92       data   0x000001
   UD_abs_pic16f1454_0e93      udata   0x000e93       data   0x000001
   UD_abs_pic16f1454_0e94      udata   0x000e94       data   0x000001
   UD_abs_pic16f1454_0e95      udata   0x000e95       data   0x000001
   UD_abs_pic16f1454_0e96      udata   0x000e96       data   0x000001
   UD_abs_pic16f1454_0e97      udata   0x000e97       data   0x000001
   UD_abs_pic16f1454_0e98      udata   0x000e98       data   0x000001
   UD_abs_pic16f1454_0e99      udata   0x000e99       data   0x000001
   UD_abs_pic16f1454_0e9a      udata   0x000e9a       data   0x000001
   UD_abs_pic16f1454_0e9b      udata   0x000e9b       data   0x000001
   UD_abs_pic16f1454_0e9c      udata   0x000e9c       data   0x000001
   UD_abs_pic16f1454_0e9d      udata   0x000e9d       data   0x000001
   UD_abs_pic16f1454_0e9e      udata   0x000e9e       data   0x000001
   UD_abs_pic16f1454_0e9f      udata   0x000e9f       data   0x000001
   UD_abs_pic16f1454_0fe4      udata   0x000fe4       data   0x000001
   UD_abs_pic16f1454_0fe5      udata   0x000fe5       data   0x000001
   UD_abs_pic16f1454_0fe6      udata   0x000fe6       data   0x000001
   UD_abs_pic16f1454_0fe7      udata   0x000fe7       data   0x000001
   UD_abs_pic16f1454_0fe8      udata   0x000fe8       data   0x000001
   UD_abs_pic16f1454_0fe9      udata   0x000fe9       data   0x000001
   UD_abs_pic16f1454_0fea      udata   0x000fea       data   0x000001
   UD_abs_pic16f1454_0feb      udata   0x000feb       data   0x000001
   UD_abs_pic16f1454_0fed      udata   0x000fed       data   0x000001
   UD_abs_pic16f1454_0fee      udata   0x000fee       data   0x000001
   UD_abs_pic16f1454_0fef      udata   0x000fef       data   0x000001



                              Program Memory Usage
                               Start         End
                           ---------   ---------
                            0x000000    0x000002
                            0x0002ad    0x00030b
                            0x000391    0x0003bb
                            0x000234    0x0002ac
                            0x0003e1    0x0003fa
                            0x008007    0x008007
                            0x008008    0x008008
                            0x000003    0x0001b3
                            0x00030c    0x000361
                            0x000403    0x000403
                            0x0001b4    0x000233
                            0x000362    0x000390
                            0x0003bc    0x0003e0
                            0x0003fb    0x000402
                            1030 program addresses used



                              Symbols - Sorted by Name
                     Name    Address   Location    Storage File
                ---------  ---------  ---------  --------- ---------
                    STK00   0x00007f       data     extern build/default/production/main.asm
                    STK01   0x00007e       data     extern build/default/production/main.asm
                    STK02   0x00007d       data     extern build/default/production/main.asm
                    STK03   0x00007c       data     extern build/default/production/main.asm
                    STK04   0x00007b       data     extern build/default/production/main.asm
                    STK05   0x00007a       data     extern build/default/production/main.asm
                    STK06   0x000079       data     extern build/default/production/main.asm
                    STK07   0x000078       data     extern build/default/production/main.asm
                    STK08   0x000077       data     extern build/default/production/main.asm
                    STK09   0x000076       data     extern build/default/production/main.asm
                    STK10   0x000075       data     extern build/default/production/main.asm
                    STK11   0x000074       data     extern build/default/production/main.asm
                    STK12   0x000073       data     extern build/default/production/main.asm
                    STK13   0x000072       data     extern build/default/production/main.asm
                    STK14   0x000071       data     extern build/default/production/main.asm
                    STK15   0x000070       data     extern build/default/production/main.asm
               _00105_DS_   0x0003e7    program     static build/default/production/main.asm
               _00105_DS_   0x000207    program     static ../libsdcce_a-idata.asm
               _00106_DS_   0x0003d5    program     static ../libsdcce_a-_muluchar.asm
               _00107_DS_   0x00022b    program     static ../libsdcce_a-idata.asm
               _00107_DS_   0x0003dc    program     static ../libsdcce_a-_muluchar.asm
               _00108_DS_   0x0001c4    program     static ../libsdcce_a-idata.asm
               _00109_DS_   0x000322    program     static ../libsdcce_a-_divulong.asm
               _00109_DS_   0x0003c3    program     static ../libsdcce_a-_muluchar.asm
               _00110_DS_   0x000299    program     static build/default/production/main.asm
               _00110_DS_   0x000231    program     static ../libsdcce_a-idata.asm
               _00110_DS_   0x000353    program     static ../libsdcce_a-_divulong.asm
               _00115_DS_   0x000395    program     static build/default/production/main.asm
               _00118_DS_   0x0003a7    program     static build/default/production/main.asm
               _00123_DS_   0x0003bb    program     static build/default/production/main.asm
               _00129_DS_   0x0002b1    program     static build/default/production/main.asm
               _00130_DS_   0x000341    program     static ../libsdcce_a-_divulong.asm
               _00131_DS_   0x0002b8    program     static build/default/production/main.asm
               _00132_DS_   0x0002ca    program     static build/default/production/main.asm
               _00139_DS_   0x0002de    program     static build/default/production/main.asm
               _00140_DS_   0x0002e5    program     static build/default/production/main.asm
               _00141_DS_   0x0002f7    program     static build/default/production/main.asm
                  _ACTCON   0x00039b       data     extern pic16f1454.asm
              _ACTCONbits   0x00039b       data     extern pic16f1454.asm
                  _ANSELA   0x00018c       data     extern pic16f1454.asm
              _ANSELAbits   0x00018c       data     extern pic16f1454.asm
                  _ANSELC   0x00018e       data     extern pic16f1454.asm
              _ANSELCbits   0x00018e       data     extern pic16f1454.asm
                  _APFCON   0x00011d       data     extern pic16f1454.asm
              _APFCONbits   0x00011d       data     extern pic16f1454.asm
                 _BAUDCON   0x00019f       data     extern pic16f1454.asm
             _BAUDCONbits   0x00019f       data     extern pic16f1454.asm
                  _BORCON   0x000116       data     extern pic16f1454.asm
              _BORCONbits   0x000116       data     extern pic16f1454.asm
                     _BSR   0x000008       data     extern pic16f1454.asm
                _BSR_SHAD   0x000fe6       data     extern pic16f1454.asm
                 _BSRbits   0x000008       data     extern pic16f1454.asm
                 _CLKRCON   0x00039a       data     extern pic16f1454.asm
             _CLKRCONbits   0x00039a       data     extern pic16f1454.asm
                    _FSR0   0x000004       data     extern pic16f1454.asm
                   _FSR0H   0x000005       data     extern pic16f1454.asm
              _FSR0H_SHAD   0x000fe9       data     extern pic16f1454.asm
                   _FSR0L   0x000004       data     extern pic16f1454.asm
              _FSR0L_SHAD   0x000fe8       data     extern pic16f1454.asm
                    _FSR1   0x000006       data     extern pic16f1454.asm
                   _FSR1H   0x000007       data     extern pic16f1454.asm
              _FSR1H_SHAD   0x000feb       data     extern pic16f1454.asm
                   _FSR1L   0x000006       data     extern pic16f1454.asm
              _FSR1L_SHAD   0x000fea       data     extern pic16f1454.asm
                  _FVRCON   0x000117       data     extern pic16f1454.asm
              _FVRCONbits   0x000117       data     extern pic16f1454.asm
                   _INDF0   0x000000       data     extern pic16f1454.asm
                   _INDF1   0x000001       data     extern pic16f1454.asm
                  _INTCON   0x00000b       data     extern pic16f1454.asm
              _INTCONbits   0x00000b       data     extern pic16f1454.asm
                   _IOCAF   0x000393       data     extern pic16f1454.asm
               _IOCAFbits   0x000393       data     extern pic16f1454.asm
                   _IOCAN   0x000392       data     extern pic16f1454.asm
               _IOCANbits   0x000392       data     extern pic16f1454.asm
                   _IOCAP   0x000391       data     extern pic16f1454.asm
               _IOCAPbits   0x000391       data     extern pic16f1454.asm
                    _LATA   0x00010c       data     extern pic16f1454.asm
                _LATAbits   0x00010c       data     extern pic16f1454.asm
                    _LATC   0x00010e       data     extern pic16f1454.asm
                _LATCbits   0x00010e       data     extern pic16f1454.asm
              _OPTION_REG   0x000095       data     extern pic16f1454.asm
          _OPTION_REGbits   0x000095       data     extern pic16f1454.asm
                  _OSCCON   0x000099       data     extern pic16f1454.asm
              _OSCCONbits   0x000099       data     extern pic16f1454.asm
                 _OSCSTAT   0x00009a       data     extern pic16f1454.asm
             _OSCSTATbits   0x00009a       data     extern pic16f1454.asm
                 _OSCTUNE   0x000098       data     extern pic16f1454.asm
             _OSCTUNEbits   0x000098       data     extern pic16f1454.asm
                     _PCL   0x000002       data     extern pic16f1454.asm
                  _PCLATH   0x00000a       data     extern pic16f1454.asm
             _PCLATH_SHAD   0x000fe7       data     extern pic16f1454.asm
                    _PCON   0x000096       data     extern pic16f1454.asm
                _PCONbits   0x000096       data     extern pic16f1454.asm
                    _PIE1   0x000091       data     extern pic16f1454.asm
                _PIE1bits   0x000091       data     extern pic16f1454.asm
                    _PIE2   0x000092       data     extern pic16f1454.asm
                _PIE2bits   0x000092       data     extern pic16f1454.asm
                    _PIR1   0x000011       data     extern pic16f1454.asm
                _PIR1bits   0x000011       data     extern pic16f1454.asm
                    _PIR2   0x000012       data     extern pic16f1454.asm
                _PIR2bits   0x000012       data     extern pic16f1454.asm
                   _PMADR   0x000191       data     extern pic16f1454.asm
                  _PMADRH   0x000192       data     extern pic16f1454.asm
                  _PMADRL   0x000191       data     extern pic16f1454.asm
                  _PMCON1   0x000195       data     extern pic16f1454.asm
              _PMCON1bits   0x000195       data     extern pic16f1454.asm
                  _PMCON2   0x000196       data     extern pic16f1454.asm
                   _PMDAT   0x000193       data     extern pic16f1454.asm
                  _PMDATH   0x000194       data     extern pic16f1454.asm
                  _PMDATL   0x000193       data     extern pic16f1454.asm
                   _PORTA   0x00000c       data     extern pic16f1454.asm
               _PORTAbits   0x00000c       data     extern pic16f1454.asm
                   _PORTC   0x00000e       data     extern pic16f1454.asm
               _PORTCbits   0x00000e       data     extern pic16f1454.asm
                     _PR2   0x00001b       data     extern pic16f1454.asm
                 _PWM1CON   0x000613       data     extern pic16f1454.asm
                _PWM1CON0   0x000613       data     extern pic16f1454.asm
            _PWM1CON0bits   0x000613       data     extern pic16f1454.asm
             _PWM1CONbits   0x000613       data     extern pic16f1454.asm
                 _PWM1DCH   0x000612       data     extern pic16f1454.asm
             _PWM1DCHbits   0x000612       data     extern pic16f1454.asm
                 _PWM1DCL   0x000611       data     extern pic16f1454.asm
             _PWM1DCLbits   0x000611       data     extern pic16f1454.asm
                 _PWM2CON   0x000616       data     extern pic16f1454.asm
                _PWM2CON0   0x000616       data     extern pic16f1454.asm
            _PWM2CON0bits   0x000616       data     extern pic16f1454.asm
             _PWM2CONbits   0x000616       data     extern pic16f1454.asm
                 _PWM2DCH   0x000615       data     extern pic16f1454.asm
             _PWM2DCHbits   0x000615       data     extern pic16f1454.asm
                 _PWM2DCL   0x000614       data     extern pic16f1454.asm
             _PWM2DCLbits   0x000614       data     extern pic16f1454.asm
                   _RCREG   0x000199       data     extern pic16f1454.asm
                   _RCSTA   0x00019d       data     extern pic16f1454.asm
               _RCSTAbits   0x00019d       data     extern pic16f1454.asm
                   _SPBRG   0x00019b       data     extern pic16f1454.asm
                  _SPBRGH   0x00019c       data     extern pic16f1454.asm
                  _SPBRGL   0x00019b       data     extern pic16f1454.asm
                 _SSP1ADD   0x000212       data     extern pic16f1454.asm
                 _SSP1BUF   0x000211       data     extern pic16f1454.asm
                _SSP1CON1   0x000215       data     extern pic16f1454.asm
            _SSP1CON1bits   0x000215       data     extern pic16f1454.asm
                _SSP1CON2   0x000216       data     extern pic16f1454.asm
            _SSP1CON2bits   0x000216       data     extern pic16f1454.asm
                _SSP1CON3   0x000217       data     extern pic16f1454.asm
            _SSP1CON3bits   0x000217       data     extern pic16f1454.asm
                 _SSP1MSK   0x000213       data     extern pic16f1454.asm
                _SSP1STAT   0x000214       data     extern pic16f1454.asm
            _SSP1STATbits   0x000214       data     extern pic16f1454.asm
                  _SSPADD   0x000212       data     extern pic16f1454.asm
                  _SSPBUF   0x000211       data     extern pic16f1454.asm
                  _SSPCON   0x000215       data     extern pic16f1454.asm
                 _SSPCON1   0x000215       data     extern pic16f1454.asm
             _SSPCON1bits   0x000215       data     extern pic16f1454.asm
                 _SSPCON2   0x000216       data     extern pic16f1454.asm
             _SSPCON2bits   0x000216       data     extern pic16f1454.asm
                 _SSPCON3   0x000217       data     extern pic16f1454.asm
             _SSPCON3bits   0x000217       data     extern pic16f1454.asm
              _SSPCONbits   0x000215       data     extern pic16f1454.asm
                  _SSPMSK   0x000213       data     extern pic16f1454.asm
                 _SSPSTAT   0x000214       data     extern pic16f1454.asm
             _SSPSTATbits   0x000214       data     extern pic16f1454.asm
                  _STATUS   0x000003       data     extern pic16f1454.asm
             _STATUS_SHAD   0x000fe4       data     extern pic16f1454.asm
         _STATUS_SHADbits   0x000fe4       data     extern pic16f1454.asm
              _STATUSbits   0x000003       data     extern pic16f1454.asm
                  _STKPTR   0x000fed       data     extern pic16f1454.asm
_S__mullong___mullong_003A   0x00003d    program     static ../libsdcce_a-_mullong.asm
_S__mullong___mullong_0053   0x000056    program     static ../libsdcce_a-_mullong.asm
_S__mullong___mullong_006F   0x000072    program     static ../libsdcce_a-_mullong.asm
_S__mullong___mullong_0083   0x000086    program     static ../libsdcce_a-_mullong.asm
_S__mullong___mullong_009E   0x0000a1    program     static ../libsdcce_a-_mullong.asm
_S__mullong___mullong_00C9   0x0000cc    program     static ../libsdcce_a-_mullong.asm
_S__mullong___mullong_00F4   0x0000f7    program     static ../libsdcce_a-_mullong.asm
_S__mullong___mullong_0105   0x000108    program     static ../libsdcce_a-_mullong.asm
_S__mullong___mullong_011D   0x000120    program     static ../libsdcce_a-_mullong.asm
_S__mullong___mullong_012F   0x000132    program     static ../libsdcce_a-_mullong.asm
_S_idata___sdcc_gsinit_startup_0007   0x0001bb    program     static ../libsdcce_a-idata.asm
_S_idata___sdcc_gsinit_startup_002B   0x0001df    program     static ../libsdcce_a-idata.asm
_S_idata___sdcc_gsinit_startup_0037   0x0001eb    program     static ../libsdcce_a-idata.asm
_S_idata___sdcc_gsinit_startup_004C   0x000200    program     static ../libsdcce_a-idata.asm
_S_idata___sdcc_gsinit_startup_0067   0x00021b    program     static ../libsdcce_a-idata.asm
  _S_main___delay_us_0019   0x00024d    program     static build/default/production/main.asm
  _S_main___delay_us_0033   0x000267    program     static build/default/production/main.asm
  _S_main___delay_us_0058   0x00028c    program     static build/default/production/main.asm
                   _T1CON   0x000018       data     extern pic16f1454.asm
               _T1CONbits   0x000018       data     extern pic16f1454.asm
                  _T1GCON   0x000019       data     extern pic16f1454.asm
              _T1GCONbits   0x000019       data     extern pic16f1454.asm
                   _T2CON   0x00001c       data     extern pic16f1454.asm
               _T2CONbits   0x00001c       data     extern pic16f1454.asm
                    _TMR0   0x000015       data     extern pic16f1454.asm
                    _TMR1   0x000016       data     extern pic16f1454.asm
                   _TMR1H   0x000017       data     extern pic16f1454.asm
                   _TMR1L   0x000016       data     extern pic16f1454.asm
                    _TMR2   0x00001a       data     extern pic16f1454.asm
                    _TOSH   0x000fef       data     extern pic16f1454.asm
                    _TOSL   0x000fee       data     extern pic16f1454.asm
                   _TRISA   0x00008c       data     extern pic16f1454.asm
               _TRISAbits   0x00008c       data     extern pic16f1454.asm
                   _TRISC   0x00008e       data     extern pic16f1454.asm
               _TRISCbits   0x00008e       data     extern pic16f1454.asm
                   _TXREG   0x00019a       data     extern pic16f1454.asm
                   _TXSTA   0x00019e       data     extern pic16f1454.asm
               _TXSTAbits   0x00019e       data     extern pic16f1454.asm
                   _UADDR   0x000e96       data     extern pic16f1454.asm
               _UADDRbits   0x000e96       data     extern pic16f1454.asm
                    _UCFG   0x000e91       data     extern pic16f1454.asm
                _UCFGbits   0x000e91       data     extern pic16f1454.asm
                    _UCON   0x000e8e       data     extern pic16f1454.asm
                _UCONbits   0x000e8e       data     extern pic16f1454.asm
                    _UEIE   0x000e97       data     extern pic16f1454.asm
                _UEIEbits   0x000e97       data     extern pic16f1454.asm
                    _UEIR   0x000e93       data     extern pic16f1454.asm
                _UEIRbits   0x000e93       data     extern pic16f1454.asm
                    _UEP0   0x000e98       data     extern pic16f1454.asm
                _UEP0bits   0x000e98       data     extern pic16f1454.asm
                    _UEP1   0x000e99       data     extern pic16f1454.asm
                _UEP1bits   0x000e99       data     extern pic16f1454.asm
                    _UEP2   0x000e9a       data     extern pic16f1454.asm
                _UEP2bits   0x000e9a       data     extern pic16f1454.asm
                    _UEP3   0x000e9b       data     extern pic16f1454.asm
                _UEP3bits   0x000e9b       data     extern pic16f1454.asm
                    _UEP4   0x000e9c       data     extern pic16f1454.asm
                _UEP4bits   0x000e9c       data     extern pic16f1454.asm
                    _UEP5   0x000e9d       data     extern pic16f1454.asm
                _UEP5bits   0x000e9d       data     extern pic16f1454.asm
                    _UEP6   0x000e9e       data     extern pic16f1454.asm
                _UEP6bits   0x000e9e       data     extern pic16f1454.asm
                    _UEP7   0x000e9f       data     extern pic16f1454.asm
                _UEP7bits   0x000e9f       data     extern pic16f1454.asm
                    _UFRM   0x000e94       data     extern pic16f1454.asm
                   _UFRMH   0x000e94       data     extern pic16f1454.asm
               _UFRMHbits   0x000e94       data     extern pic16f1454.asm
                   _UFRML   0x000e95       data     extern pic16f1454.asm
               _UFRMLbits   0x000e95       data     extern pic16f1454.asm
                     _UIE   0x000e92       data     extern pic16f1454.asm
                 _UIEbits   0x000e92       data     extern pic16f1454.asm
                     _UIR   0x000e90       data     extern pic16f1454.asm
                 _UIRbits   0x000e90       data     extern pic16f1454.asm
                   _USTAT   0x000e8f       data     extern pic16f1454.asm
               _USTATbits   0x000e8f       data     extern pic16f1454.asm
                 _VREGCON   0x000197       data     extern pic16f1454.asm
             _VREGCONbits   0x000197       data     extern pic16f1454.asm
                  _WDTCON   0x000097       data     extern pic16f1454.asm
              _WDTCONbits   0x000097       data     extern pic16f1454.asm
                    _WPUA   0x00020c       data     extern pic16f1454.asm
                _WPUAbits   0x00020c       data     extern pic16f1454.asm
                    _WREG   0x000009       data     extern pic16f1454.asm
               _WREG_SHAD   0x000fe5       data     extern pic16f1454.asm
            __codeptrget1   0x00038c    program     extern /home/sdcc-builder/build/sdcc-build/orig/sdcc/device/lib/pic14/libsdcc/enhanced/_gptrget1.S
            __codeptrget2   0x000372    program     static /home/sdcc-builder/build/sdcc-build/orig/sdcc/device/lib/pic14/libsdcc/enhanced/_gptrget2.S
            __dataptrget1   0x000386    program     static /home/sdcc-builder/build/sdcc-build/orig/sdcc/device/lib/pic14/libsdcc/enhanced/_gptrget1.S
            __dataptrget2   0x00036a    program     static /home/sdcc-builder/build/sdcc-build/orig/sdcc/device/lib/pic14/libsdcc/enhanced/_gptrget2.S
             __delay_cycl   0x0003e1    program     static build/default/production/main.asm
               __delay_ms   0x000391    program     static build/default/production/main.asm
               __delay_us   0x000234    program     static build/default/production/main.asm
               __divulong   0x00030c    program     extern ../libsdcce_a-_divulong.asm
                __gptrget   0x00037f    program     extern /home/sdcc-builder/build/sdcc-build/orig/sdcc/device/lib/pic14/libsdcc/enhanced/_gptrget1.S
               __gptrget1   0x00037f    program     extern /home/sdcc-builder/build/sdcc-build/orig/sdcc/device/lib/pic14/libsdcc/enhanced/_gptrget1.S
               __gptrget2   0x000362    program     extern /home/sdcc-builder/build/sdcc-build/orig/sdcc/device/lib/pic14/libsdcc/enhanced/_gptrget2.S
                __mullong   0x000003    program     extern ../libsdcce_a-_mullong.asm
      __mullong_t_65536_2   0x000634       data     static ../libsdcce_a-_mullong.asm
      __mullong_x_65536_2   0x00062c       data     static ../libsdcce_a-_mullong.asm
      __mullong_y_65536_2   0x000630       data     static ../libsdcce_a-_mullong.asm
               __muluchar   0x0003bc    program     extern ../libsdcce_a-_muluchar.asm
    __sdcc_gsinit_startup   0x0001b4    program     extern ../libsdcce_a-idata.asm
                   _cinit   0x0003fb    program     extern 
             _force_cinit   0x00032e       data     static ../libsdcce_a-idata.asm
                    _main   0x0002ad    program     extern build/default/production/main.asm
                  r0x1000   0x000323       data     static ../libsdcce_a-_divulong.asm
                  r0x1000   0x000648       data     static build/default/production/main.asm
                  r0x1000   0x000331       data     static ../libsdcce_a-idata.asm
                  r0x1000   0x00033c       data     static ../libsdcce_a-_muluchar.asm
                  r0x1001   0x00033d       data     static ../libsdcce_a-_muluchar.asm
                  r0x1001   0x000322       data     static ../libsdcce_a-_divulong.asm
                  r0x1001   0x000330       data     static ../libsdcce_a-idata.asm
                  r0x1001   0x000649       data     static build/default/production/main.asm
                  r0x1002   0x000332       data     static ../libsdcce_a-idata.asm
                  r0x1002   0x000321       data     static ../libsdcce_a-_divulong.asm
                  r0x1002   0x00064a       data     static build/default/production/main.asm
                  r0x1002   0x00033e       data     static ../libsdcce_a-_muluchar.asm
                  r0x1003   0x000333       data     static ../libsdcce_a-idata.asm
                  r0x1003   0x00064b       data     static build/default/production/main.asm
                  r0x1003   0x00033f       data     static ../libsdcce_a-_muluchar.asm
                  r0x1003   0x000320       data     static ../libsdcce_a-_divulong.asm
                  r0x1004   0x000334       data     static ../libsdcce_a-idata.asm
                  r0x1004   0x000340       data     static ../libsdcce_a-_muluchar.asm
                  r0x1004   0x00064c       data     static build/default/production/main.asm
                  r0x1004   0x000327       data     static ../libsdcce_a-_divulong.asm
                  r0x1005   0x000335       data     static ../libsdcce_a-idata.asm
                  r0x1005   0x000326       data     static ../libsdcce_a-_divulong.asm
                  r0x1005   0x00064d       data     static build/default/production/main.asm
                  r0x1005   0x000341       data     static ../libsdcce_a-_muluchar.asm
                  r0x1006   0x000643       data     static build/default/production/main.asm
                  r0x1006   0x000325       data     static ../libsdcce_a-_divulong.asm
                  r0x1006   0x000337       data     static ../libsdcce_a-idata.asm
                  r0x1007   0x000336       data     static ../libsdcce_a-idata.asm
                  r0x1007   0x000642       data     static build/default/production/main.asm
                  r0x1007   0x000324       data     static ../libsdcce_a-_divulong.asm
                  r0x1008   0x000328       data     static ../libsdcce_a-_divulong.asm
                  r0x1008   0x000644       data     static build/default/production/main.asm
                  r0x1008   0x000342       data     static ../libsdcce_a-_muluchar.asm
                  r0x1008   0x000338       data     static ../libsdcce_a-idata.asm
                  r0x1009   0x000645       data     static build/default/production/main.asm
                  r0x1009   0x000329       data     static ../libsdcce_a-_divulong.asm
                  r0x1009   0x000339       data     static ../libsdcce_a-idata.asm
                  r0x100A   0x000646       data     static build/default/production/main.asm
                  r0x100A   0x00032a       data     static ../libsdcce_a-_divulong.asm
                  r0x100A   0x00033b       data     static ../libsdcce_a-idata.asm
                  r0x100B   0x00033a       data     static ../libsdcce_a-idata.asm
                  r0x100B   0x000647       data     static build/default/production/main.asm
                  r0x100B   0x00032b       data     static ../libsdcce_a-_divulong.asm
                  r0x100C   0x00063d       data     static build/default/production/main.asm
                  r0x100C   0x00032c       data     static ../libsdcce_a-_divulong.asm
                  r0x100C   0x000623       data     static ../libsdcce_a-_mullong.asm
                  r0x100D   0x000622       data     static ../libsdcce_a-_mullong.asm
                  r0x100D   0x00063c       data     static build/default/production/main.asm
                  r0x100D   0x00032d       data     static ../libsdcce_a-_divulong.asm
                  r0x100E   0x00063e       data     static build/default/production/main.asm
                  r0x100E   0x000621       data     static ../libsdcce_a-_mullong.asm
                  r0x100F   0x000620       data     static ../libsdcce_a-_mullong.asm
                  r0x100F   0x00063f       data     static build/default/production/main.asm
                  r0x1010   0x000640       data     static build/default/production/main.asm
                  r0x1010   0x000627       data     static ../libsdcce_a-_mullong.asm
                  r0x1011   0x000641       data     static build/default/production/main.asm
                  r0x1011   0x000626       data     static ../libsdcce_a-_mullong.asm
                  r0x1012   0x000639       data     static build/default/production/main.asm
                  r0x1012   0x000625       data     static ../libsdcce_a-_mullong.asm
                  r0x1013   0x000638       data     static build/default/production/main.asm
                  r0x1013   0x000624       data     static ../libsdcce_a-_mullong.asm
                  r0x1014   0x00063a       data     static build/default/production/main.asm
                  r0x1014   0x000628       data     static ../libsdcce_a-_mullong.asm
                  r0x1015   0x000629       data     static ../libsdcce_a-_mullong.asm
                  r0x1015   0x00063b       data     static build/default/production/main.asm
                  r0x1016   0x00062a       data     static ../libsdcce_a-_mullong.asm
                  r0x1017   0x00062b       data     static ../libsdcce_a-_mullong.asm



                              Symbols - Sorted by Address
                     Name    Address   Location    Storage File
                ---------  ---------  ---------  --------- ---------
                   _INDF0   0x000000       data     extern pic16f1454.asm
                   _INDF1   0x000001       data     extern pic16f1454.asm
                     _PCL   0x000002       data     extern pic16f1454.asm
              _STATUSbits   0x000003       data     extern pic16f1454.asm
                  _STATUS   0x000003       data     extern pic16f1454.asm
                __mullong   0x000003    program     extern ../libsdcce_a-_mullong.asm
                    _FSR0   0x000004       data     extern pic16f1454.asm
                   _FSR0L   0x000004       data     extern pic16f1454.asm
                   _FSR0H   0x000005       data     extern pic16f1454.asm
                   _FSR1L   0x000006       data     extern pic16f1454.asm
                    _FSR1   0x000006       data     extern pic16f1454.asm
                   _FSR1H   0x000007       data     extern pic16f1454.asm
                     _BSR   0x000008       data     extern pic16f1454.asm
                 _BSRbits   0x000008       data     extern pic16f1454.asm
                    _WREG   0x000009       data     extern pic16f1454.asm
                  _PCLATH   0x00000a       data     extern pic16f1454.asm
              _INTCONbits   0x00000b       data     extern pic16f1454.asm
                  _INTCON   0x00000b       data     extern pic16f1454.asm
                   _PORTA   0x00000c       data     extern pic16f1454.asm
               _PORTAbits   0x00000c       data     extern pic16f1454.asm
                   _PORTC   0x00000e       data     extern pic16f1454.asm
               _PORTCbits   0x00000e       data     extern pic16f1454.asm
                    _PIR1   0x000011       data     extern pic16f1454.asm
                _PIR1bits   0x000011       data     extern pic16f1454.asm
                _PIR2bits   0x000012       data     extern pic16f1454.asm
                    _PIR2   0x000012       data     extern pic16f1454.asm
                    _TMR0   0x000015       data     extern pic16f1454.asm
                    _TMR1   0x000016       data     extern pic16f1454.asm
                   _TMR1L   0x000016       data     extern pic16f1454.asm
                   _TMR1H   0x000017       data     extern pic16f1454.asm
               _T1CONbits   0x000018       data     extern pic16f1454.asm
                   _T1CON   0x000018       data     extern pic16f1454.asm
                  _T1GCON   0x000019       data     extern pic16f1454.asm
              _T1GCONbits   0x000019       data     extern pic16f1454.asm
                    _TMR2   0x00001a       data     extern pic16f1454.asm
                     _PR2   0x00001b       data     extern pic16f1454.asm
                   _T2CON   0x00001c       data     extern pic16f1454.asm
               _T2CONbits   0x00001c       data     extern pic16f1454.asm
_S__mullong___mullong_003A   0x00003d    program     static ../libsdcce_a-_mullong.asm
_S__mullong___mullong_0053   0x000056    program     static ../libsdcce_a-_mullong.asm
                    STK15   0x000070       data     extern build/default/production/main.asm
                    STK14   0x000071       data     extern build/default/production/main.asm
_S__mullong___mullong_006F   0x000072    program     static ../libsdcce_a-_mullong.asm
                    STK13   0x000072       data     extern build/default/production/main.asm
                    STK12   0x000073       data     extern build/default/production/main.asm
                    STK11   0x000074       data     extern build/default/production/main.asm
                    STK10   0x000075       data     extern build/default/production/main.asm
                    STK09   0x000076       data     extern build/default/production/main.asm
                    STK08   0x000077       data     extern build/default/production/main.asm
                    STK07   0x000078       data     extern build/default/production/main.asm
                    STK06   0x000079       data     extern build/default/production/main.asm
                    STK05   0x00007a       data     extern build/default/production/main.asm
                    STK04   0x00007b       data     extern build/default/production/main.asm
                    STK03   0x00007c       data     extern build/default/production/main.asm
                    STK02   0x00007d       data     extern build/default/production/main.asm
                    STK01   0x00007e       data     extern build/default/production/main.asm
                    STK00   0x00007f       data     extern build/default/production/main.asm
_S__mullong___mullong_0083   0x000086    program     static ../libsdcce_a-_mullong.asm
                   _TRISA   0x00008c       data     extern pic16f1454.asm
               _TRISAbits   0x00008c       data     extern pic16f1454.asm
               _TRISCbits   0x00008e       data     extern pic16f1454.asm
                   _TRISC   0x00008e       data     extern pic16f1454.asm
                    _PIE1   0x000091       data     extern pic16f1454.asm
                _PIE1bits   0x000091       data     extern pic16f1454.asm
                    _PIE2   0x000092       data     extern pic16f1454.asm
                _PIE2bits   0x000092       data     extern pic16f1454.asm
          _OPTION_REGbits   0x000095       data     extern pic16f1454.asm
              _OPTION_REG   0x000095       data     extern pic16f1454.asm
                    _PCON   0x000096       data     extern pic16f1454.asm
                _PCONbits   0x000096       data     extern pic16f1454.asm
                  _WDTCON   0x000097       data     extern pic16f1454.asm
              _WDTCONbits   0x000097       data     extern pic16f1454.asm
             _OSCTUNEbits   0x000098       data     extern pic16f1454.asm
                 _OSCTUNE   0x000098       data     extern pic16f1454.asm
              _OSCCONbits   0x000099       data     extern pic16f1454.asm
                  _OSCCON   0x000099       data     extern pic16f1454.asm
                 _OSCSTAT   0x00009a       data     extern pic16f1454.asm
             _OSCSTATbits   0x00009a       data     extern pic16f1454.asm
_S__mullong___mullong_009E   0x0000a1    program     static ../libsdcce_a-_mullong.asm
_S__mullong___mullong_00C9   0x0000cc    program     static ../libsdcce_a-_mullong.asm
_S__mullong___mullong_00F4   0x0000f7    program     static ../libsdcce_a-_mullong.asm
_S__mullong___mullong_0105   0x000108    program     static ../libsdcce_a-_mullong.asm
                    _LATA   0x00010c       data     extern pic16f1454.asm
                _LATAbits   0x00010c       data     extern pic16f1454.asm
                _LATCbits   0x00010e       data     extern pic16f1454.asm
                    _LATC   0x00010e       data     extern pic16f1454.asm
                  _BORCON   0x000116       data     extern pic16f1454.asm
              _BORCONbits   0x000116       data     extern pic16f1454.asm
                  _FVRCON   0x000117       data     extern pic16f1454.asm
              _FVRCONbits   0x000117       data     extern pic16f1454.asm
              _APFCONbits   0x00011d       data     extern pic16f1454.asm
                  _APFCON   0x00011d       data     extern pic16f1454.asm
_S__mullong___mullong_011D   0x000120    program     static ../libsdcce_a-_mullong.asm
_S__mullong___mullong_012F   0x000132    program     static ../libsdcce_a-_mullong.asm
                  _ANSELA   0x00018c       data     extern pic16f1454.asm
              _ANSELAbits   0x00018c       data     extern pic16f1454.asm
              _ANSELCbits   0x00018e       data     extern pic16f1454.asm
                  _ANSELC   0x00018e       data     extern pic16f1454.asm
                   _PMADR   0x000191       data     extern pic16f1454.asm
                  _PMADRL   0x000191       data     extern pic16f1454.asm
                  _PMADRH   0x000192       data     extern pic16f1454.asm
                  _PMDATL   0x000193       data     extern pic16f1454.asm
                   _PMDAT   0x000193       data     extern pic16f1454.asm
                  _PMDATH   0x000194       data     extern pic16f1454.asm
                  _PMCON1   0x000195       data     extern pic16f1454.asm
              _PMCON1bits   0x000195       data     extern pic16f1454.asm
                  _PMCON2   0x000196       data     extern pic16f1454.asm
                 _VREGCON   0x000197       data     extern pic16f1454.asm
             _VREGCONbits   0x000197       data     extern pic16f1454.asm
                   _RCREG   0x000199       data     extern pic16f1454.asm
                   _TXREG   0x00019a       data     extern pic16f1454.asm
                   _SPBRG   0x00019b       data     extern pic16f1454.asm
                  _SPBRGL   0x00019b       data     extern pic16f1454.asm
                  _SPBRGH   0x00019c       data     extern pic16f1454.asm
               _RCSTAbits   0x00019d       data     extern pic16f1454.asm
                   _RCSTA   0x00019d       data     extern pic16f1454.asm
               _TXSTAbits   0x00019e       data     extern pic16f1454.asm
                   _TXSTA   0x00019e       data     extern pic16f1454.asm
                 _BAUDCON   0x00019f       data     extern pic16f1454.asm
             _BAUDCONbits   0x00019f       data     extern pic16f1454.asm
    __sdcc_gsinit_startup   0x0001b4    program     extern ../libsdcce_a-idata.asm
_S_idata___sdcc_gsinit_startup_0007   0x0001bb    program     static ../libsdcce_a-idata.asm
               _00108_DS_   0x0001c4    program     static ../libsdcce_a-idata.asm
_S_idata___sdcc_gsinit_startup_002B   0x0001df    program     static ../libsdcce_a-idata.asm
_S_idata___sdcc_gsinit_startup_0037   0x0001eb    program     static ../libsdcce_a-idata.asm
_S_idata___sdcc_gsinit_startup_004C   0x000200    program     static ../libsdcce_a-idata.asm
               _00105_DS_   0x000207    program     static ../libsdcce_a-idata.asm
                _WPUAbits   0x00020c       data     extern pic16f1454.asm
                    _WPUA   0x00020c       data     extern pic16f1454.asm
                  _SSPBUF   0x000211       data     extern pic16f1454.asm
                 _SSP1BUF   0x000211       data     extern pic16f1454.asm
                 _SSP1ADD   0x000212       data     extern pic16f1454.asm
                  _SSPADD   0x000212       data     extern pic16f1454.asm
                 _SSP1MSK   0x000213       data     extern pic16f1454.asm
                  _SSPMSK   0x000213       data     extern pic16f1454.asm
                _SSP1STAT   0x000214       data     extern pic16f1454.asm
             _SSPSTATbits   0x000214       data     extern pic16f1454.asm
            _SSP1STATbits   0x000214       data     extern pic16f1454.asm
                 _SSPSTAT   0x000214       data     extern pic16f1454.asm
            _SSP1CON1bits   0x000215       data     extern pic16f1454.asm
                 _SSPCON1   0x000215       data     extern pic16f1454.asm
             _SSPCON1bits   0x000215       data     extern pic16f1454.asm
                  _SSPCON   0x000215       data     extern pic16f1454.asm
                _SSP1CON1   0x000215       data     extern pic16f1454.asm
              _SSPCONbits   0x000215       data     extern pic16f1454.asm
             _SSPCON2bits   0x000216       data     extern pic16f1454.asm
                 _SSPCON2   0x000216       data     extern pic16f1454.asm
                _SSP1CON2   0x000216       data     extern pic16f1454.asm
            _SSP1CON2bits   0x000216       data     extern pic16f1454.asm
            _SSP1CON3bits   0x000217       data     extern pic16f1454.asm
                _SSP1CON3   0x000217       data     extern pic16f1454.asm
             _SSPCON3bits   0x000217       data     extern pic16f1454.asm
                 _SSPCON3   0x000217       data     extern pic16f1454.asm
_S_idata___sdcc_gsinit_startup_0067   0x00021b    program     static ../libsdcce_a-idata.asm
               _00107_DS_   0x00022b    program     static ../libsdcce_a-idata.asm
               _00110_DS_   0x000231    program     static ../libsdcce_a-idata.asm
               __delay_us   0x000234    program     static build/default/production/main.asm
  _S_main___delay_us_0019   0x00024d    program     static build/default/production/main.asm
  _S_main___delay_us_0033   0x000267    program     static build/default/production/main.asm
  _S_main___delay_us_0058   0x00028c    program     static build/default/production/main.asm
               _00110_DS_   0x000299    program     static build/default/production/main.asm
                    _main   0x0002ad    program     extern build/default/production/main.asm
               _00129_DS_   0x0002b1    program     static build/default/production/main.asm
               _00131_DS_   0x0002b8    program     static build/default/production/main.asm
               _00132_DS_   0x0002ca    program     static build/default/production/main.asm
               _00139_DS_   0x0002de    program     static build/default/production/main.asm
               _00140_DS_   0x0002e5    program     static build/default/production/main.asm
               _00141_DS_   0x0002f7    program     static build/default/production/main.asm
               __divulong   0x00030c    program     extern ../libsdcce_a-_divulong.asm
                  r0x1003   0x000320       data     static ../libsdcce_a-_divulong.asm
                  r0x1002   0x000321       data     static ../libsdcce_a-_divulong.asm
                  r0x1001   0x000322       data     static ../libsdcce_a-_divulong.asm
               _00109_DS_   0x000322    program     static ../libsdcce_a-_divulong.asm
                  r0x1000   0x000323       data     static ../libsdcce_a-_divulong.asm
                  r0x1007   0x000324       data     static ../libsdcce_a-_divulong.asm
                  r0x1006   0x000325       data     static ../libsdcce_a-_divulong.asm
                  r0x1005   0x000326       data     static ../libsdcce_a-_divulong.asm
                  r0x1004   0x000327       data     static ../libsdcce_a-_divulong.asm
                  r0x1008   0x000328       data     static ../libsdcce_a-_divulong.asm
                  r0x1009   0x000329       data     static ../libsdcce_a-_divulong.asm
                  r0x100A   0x00032a       data     static ../libsdcce_a-_divulong.asm
                  r0x100B   0x00032b       data     static ../libsdcce_a-_divulong.asm
                  r0x100C   0x00032c       data     static ../libsdcce_a-_divulong.asm
                  r0x100D   0x00032d       data     static ../libsdcce_a-_divulong.asm
             _force_cinit   0x00032e       data     static ../libsdcce_a-idata.asm
                  r0x1001   0x000330       data     static ../libsdcce_a-idata.asm
                  r0x1000   0x000331       data     static ../libsdcce_a-idata.asm
                  r0x1002   0x000332       data     static ../libsdcce_a-idata.asm
                  r0x1003   0x000333       data     static ../libsdcce_a-idata.asm
                  r0x1004   0x000334       data     static ../libsdcce_a-idata.asm
                  r0x1005   0x000335       data     static ../libsdcce_a-idata.asm
                  r0x1007   0x000336       data     static ../libsdcce_a-idata.asm
                  r0x1006   0x000337       data     static ../libsdcce_a-idata.asm
                  r0x1008   0x000338       data     static ../libsdcce_a-idata.asm
                  r0x1009   0x000339       data     static ../libsdcce_a-idata.asm
                  r0x100B   0x00033a       data     static ../libsdcce_a-idata.asm
                  r0x100A   0x00033b       data     static ../libsdcce_a-idata.asm
                  r0x1000   0x00033c       data     static ../libsdcce_a-_muluchar.asm
                  r0x1001   0x00033d       data     static ../libsdcce_a-_muluchar.asm
                  r0x1002   0x00033e       data     static ../libsdcce_a-_muluchar.asm
                  r0x1003   0x00033f       data     static ../libsdcce_a-_muluchar.asm
                  r0x1004   0x000340       data     static ../libsdcce_a-_muluchar.asm
               _00130_DS_   0x000341    program     static ../libsdcce_a-_divulong.asm
                  r0x1005   0x000341       data     static ../libsdcce_a-_muluchar.asm
                  r0x1008   0x000342       data     static ../libsdcce_a-_muluchar.asm
               _00110_DS_   0x000353    program     static ../libsdcce_a-_divulong.asm
               __gptrget2   0x000362    program     extern /home/sdcc-builder/build/sdcc-build/orig/sdcc/device/lib/pic14/libsdcc/enhanced/_gptrget2.S
            __dataptrget2   0x00036a    program     static /home/sdcc-builder/build/sdcc-build/orig/sdcc/device/lib/pic14/libsdcc/enhanced/_gptrget2.S
            __codeptrget2   0x000372    program     static /home/sdcc-builder/build/sdcc-build/orig/sdcc/device/lib/pic14/libsdcc/enhanced/_gptrget2.S
               __gptrget1   0x00037f    program     extern /home/sdcc-builder/build/sdcc-build/orig/sdcc/device/lib/pic14/libsdcc/enhanced/_gptrget1.S
                __gptrget   0x00037f    program     extern /home/sdcc-builder/build/sdcc-build/orig/sdcc/device/lib/pic14/libsdcc/enhanced/_gptrget1.S
            __dataptrget1   0x000386    program     static /home/sdcc-builder/build/sdcc-build/orig/sdcc/device/lib/pic14/libsdcc/enhanced/_gptrget1.S
            __codeptrget1   0x00038c    program     extern /home/sdcc-builder/build/sdcc-build/orig/sdcc/device/lib/pic14/libsdcc/enhanced/_gptrget1.S
                   _IOCAP   0x000391       data     extern pic16f1454.asm
               _IOCAPbits   0x000391       data     extern pic16f1454.asm
               __delay_ms   0x000391    program     static build/default/production/main.asm
                   _IOCAN   0x000392       data     extern pic16f1454.asm
               _IOCANbits   0x000392       data     extern pic16f1454.asm
               _IOCAFbits   0x000393       data     extern pic16f1454.asm
                   _IOCAF   0x000393       data     extern pic16f1454.asm
               _00115_DS_   0x000395    program     static build/default/production/main.asm
             _CLKRCONbits   0x00039a       data     extern pic16f1454.asm
                 _CLKRCON   0x00039a       data     extern pic16f1454.asm
              _ACTCONbits   0x00039b       data     extern pic16f1454.asm
                  _ACTCON   0x00039b       data     extern pic16f1454.asm
               _00118_DS_   0x0003a7    program     static build/default/production/main.asm
               _00123_DS_   0x0003bb    program     static build/default/production/main.asm
               __muluchar   0x0003bc    program     extern ../libsdcce_a-_muluchar.asm
               _00109_DS_   0x0003c3    program     static ../libsdcce_a-_muluchar.asm
               _00106_DS_   0x0003d5    program     static ../libsdcce_a-_muluchar.asm
               _00107_DS_   0x0003dc    program     static ../libsdcce_a-_muluchar.asm
             __delay_cycl   0x0003e1    program     static build/default/production/main.asm
               _00105_DS_   0x0003e7    program     static build/default/production/main.asm
                   _cinit   0x0003fb    program     extern 
             _PWM1DCLbits   0x000611       data     extern pic16f1454.asm
                 _PWM1DCL   0x000611       data     extern pic16f1454.asm
             _PWM1DCHbits   0x000612       data     extern pic16f1454.asm
                 _PWM1DCH   0x000612       data     extern pic16f1454.asm
                 _PWM1CON   0x000613       data     extern pic16f1454.asm
             _PWM1CONbits   0x000613       data     extern pic16f1454.asm
            _PWM1CON0bits   0x000613       data     extern pic16f1454.asm
                _PWM1CON0   0x000613       data     extern pic16f1454.asm
             _PWM2DCLbits   0x000614       data     extern pic16f1454.asm
                 _PWM2DCL   0x000614       data     extern pic16f1454.asm
             _PWM2DCHbits   0x000615       data     extern pic16f1454.asm
                 _PWM2DCH   0x000615       data     extern pic16f1454.asm
            _PWM2CON0bits   0x000616       data     extern pic16f1454.asm
             _PWM2CONbits   0x000616       data     extern pic16f1454.asm
                _PWM2CON0   0x000616       data     extern pic16f1454.asm
                 _PWM2CON   0x000616       data     extern pic16f1454.asm
                  r0x100F   0x000620       data     static ../libsdcce_a-_mullong.asm
                  r0x100E   0x000621       data     static ../libsdcce_a-_mullong.asm
                  r0x100D   0x000622       data     static ../libsdcce_a-_mullong.asm
                  r0x100C   0x000623       data     static ../libsdcce_a-_mullong.asm
                  r0x1013   0x000624       data     static ../libsdcce_a-_mullong.asm
                  r0x1012   0x000625       data     static ../libsdcce_a-_mullong.asm
                  r0x1011   0x000626       data     static ../libsdcce_a-_mullong.asm
                  r0x1010   0x000627       data     static ../libsdcce_a-_mullong.asm
                  r0x1014   0x000628       data     static ../libsdcce_a-_mullong.asm
                  r0x1015   0x000629       data     static ../libsdcce_a-_mullong.asm
                  r0x1016   0x00062a       data     static ../libsdcce_a-_mullong.asm
                  r0x1017   0x00062b       data     static ../libsdcce_a-_mullong.asm
      __mullong_x_65536_2   0x00062c       data     static ../libsdcce_a-_mullong.asm
      __mullong_y_65536_2   0x000630       data     static ../libsdcce_a-_mullong.asm
      __mullong_t_65536_2   0x000634       data     static ../libsdcce_a-_mullong.asm
                  r0x1013   0x000638       data     static build/default/production/main.asm
                  r0x1012   0x000639       data     static build/default/production/main.asm
                  r0x1014   0x00063a       data     static build/default/production/main.asm
                  r0x1015   0x00063b       data     static build/default/production/main.asm
                  r0x100D   0x00063c       data     static build/default/production/main.asm
                  r0x100C   0x00063d       data     static build/default/production/main.asm
                  r0x100E   0x00063e       data     static build/default/production/main.asm
                  r0x100F   0x00063f       data     static build/default/production/main.asm
                  r0x1010   0x000640       data     static build/default/production/main.asm
                  r0x1011   0x000641       data     static build/default/production/main.asm
                  r0x1007   0x000642       data     static build/default/production/main.asm
                  r0x1006   0x000643       data     static build/default/production/main.asm
                  r0x1008   0x000644       data     static build/default/production/main.asm
                  r0x1009   0x000645       data     static build/default/production/main.asm
                  r0x100A   0x000646       data     static build/default/production/main.asm
                  r0x100B   0x000647       data     static build/default/production/main.asm
                  r0x1000   0x000648       data     static build/default/production/main.asm
                  r0x1001   0x000649       data     static build/default/production/main.asm
                  r0x1002   0x00064a       data     static build/default/production/main.asm
                  r0x1003   0x00064b       data     static build/default/production/main.asm
                  r0x1004   0x00064c       data     static build/default/production/main.asm
                  r0x1005   0x00064d       data     static build/default/production/main.asm
                    _UCON   0x000e8e       data     extern pic16f1454.asm
                _UCONbits   0x000e8e       data     extern pic16f1454.asm
                   _USTAT   0x000e8f       data     extern pic16f1454.asm
               _USTATbits   0x000e8f       data     extern pic16f1454.asm
                     _UIR   0x000e90       data     extern pic16f1454.asm
                 _UIRbits   0x000e90       data     extern pic16f1454.asm
                _UCFGbits   0x000e91       data     extern pic16f1454.asm
                    _UCFG   0x000e91       data     extern pic16f1454.asm
                 _UIEbits   0x000e92       data     extern pic16f1454.asm
                     _UIE   0x000e92       data     extern pic16f1454.asm
                    _UEIR   0x000e93       data     extern pic16f1454.asm
                _UEIRbits   0x000e93       data     extern pic16f1454.asm
               _UFRMHbits   0x000e94       data     extern pic16f1454.asm
                   _UFRMH   0x000e94       data     extern pic16f1454.asm
                    _UFRM   0x000e94       data     extern pic16f1454.asm
               _UFRMLbits   0x000e95       data     extern pic16f1454.asm
                   _UFRML   0x000e95       data     extern pic16f1454.asm
                   _UADDR   0x000e96       data     extern pic16f1454.asm
               _UADDRbits   0x000e96       data     extern pic16f1454.asm
                    _UEIE   0x000e97       data     extern pic16f1454.asm
                _UEIEbits   0x000e97       data     extern pic16f1454.asm
                    _UEP0   0x000e98       data     extern pic16f1454.asm
                _UEP0bits   0x000e98       data     extern pic16f1454.asm
                    _UEP1   0x000e99       data     extern pic16f1454.asm
                _UEP1bits   0x000e99       data     extern pic16f1454.asm
                    _UEP2   0x000e9a       data     extern pic16f1454.asm
                _UEP2bits   0x000e9a       data     extern pic16f1454.asm
                _UEP3bits   0x000e9b       data     extern pic16f1454.asm
                    _UEP3   0x000e9b       data     extern pic16f1454.asm
                _UEP4bits   0x000e9c       data     extern pic16f1454.asm
                    _UEP4   0x000e9c       data     extern pic16f1454.asm
                    _UEP5   0x000e9d       data     extern pic16f1454.asm
                _UEP5bits   0x000e9d       data     extern pic16f1454.asm
                    _UEP6   0x000e9e       data     extern pic16f1454.asm
                _UEP6bits   0x000e9e       data     extern pic16f1454.asm
                _UEP7bits   0x000e9f       data     extern pic16f1454.asm
                    _UEP7   0x000e9f       data     extern pic16f1454.asm
         _STATUS_SHADbits   0x000fe4       data     extern pic16f1454.asm
             _STATUS_SHAD   0x000fe4       data     extern pic16f1454.asm
               _WREG_SHAD   0x000fe5       data     extern pic16f1454.asm
                _BSR_SHAD   0x000fe6       data     extern pic16f1454.asm
             _PCLATH_SHAD   0x000fe7       data     extern pic16f1454.asm
              _FSR0L_SHAD   0x000fe8       data     extern pic16f1454.asm
              _FSR0H_SHAD   0x000fe9       data     extern pic16f1454.asm
              _FSR1L_SHAD   0x000fea       data     extern pic16f1454.asm
              _FSR1H_SHAD   0x000feb       data     extern pic16f1454.asm
                  _STKPTR   0x000fed       data     extern pic16f1454.asm
                    _TOSL   0x000fee       data     extern pic16f1454.asm
                    _TOSH   0x000fef       data     extern pic16f1454.asm


